; Function Attrs: mustprogress uwtable
define dso_local void @_ZN4Luau7CodeGen3X6418AssemblyBuilderX648placeAvxEPKcNS1_10OperandX64ES5_S5_hbhh(ptr noundef nonnull align 8 dereferenceable(252) %0, ptr noundef %1, i64 %2, i64 %3, i64 %4, i8 noundef zeroext %5, i1 noundef zeroext %6, i8 noundef zeroext %7, i8 noundef zeroext %8) local_unnamed_addr #0 align 2 {
  %10 = getelementptr inbounds nuw i8, ptr %0, i64 80
  %11 = load i8, ptr %10, align 8, !tbaa !14, !range !61, !noundef !62
  %12 = trunc nuw i8 %11 to i1
  br i1 %12, label %13, label %14

13:                                               ; preds = %9
  tail call void @_ZN4Luau7CodeGen3X6418AssemblyBuilderX643logEPKcNS1_10OperandX64ES5_S5_(ptr noundef nonnull align 8 dereferenceable(252) %0, ptr noundef %1, i64 %2, i64 %3, i64 %4)
  br label %14

14:                                               ; preds = %13, %9
  %.sroa.17.0.extract.shift.i = lshr i64 %2, 16
  %.sroa.17.0.extract.trunc.i = trunc i64 %.sroa.17.0.extract.shift.i to i8
  %15 = getelementptr inbounds nuw i8, ptr %0, i64 232
  %16 = load ptr, ptr %15, align 8, !tbaa !51
  %17 = getelementptr inbounds nuw i8, ptr %16, i64 1
  store ptr %17, ptr %15, align 8, !tbaa !51
  store i8 -60, ptr %16, align 1, !tbaa !13
  %18 = shl i8 %.sroa.17.0.extract.trunc.i, 1
  %19 = and i8 %18, -128
  %20 = trunc i64 %4 to i32
  %21 = lshr i32 %20, 8
  %22 = and i32 %21, 64
  %23 = lshr i32 %20, 17
  %24 = and i32 %23, 32
  %25 = or disjoint i32 %24, %22
  %26 = trunc nuw nsw i32 %25 to i8
  %27 = or disjoint i8 %19, %26
  %28 = xor i8 %27, -32
  %29 = or i8 %28, %7
  %30 = load ptr, ptr %15, align 8, !tbaa !51
  %31 = getelementptr inbounds nuw i8, ptr %30, i64 1
  store ptr %31, ptr %15, align 8, !tbaa !51
  store i8 %29, ptr %30, align 1, !tbaa !13
  %32 = select i1 %6, i32 128, i32 0
  %33 = trunc i64 %3 to i32
  %34 = lshr i32 %33, 16
  %35 = and i32 %34, 120
  %36 = or disjoint i32 %32, %35
  %37 = and i8 %.sroa.17.0.extract.trunc.i, 7
  %38 = icmp eq i8 %37, 6
  %39 = select i1 %38, i32 4, i32 0
  %40 = or disjoint i32 %36, %39
  %41 = trunc nuw i32 %40 to i8
  %42 = xor i8 %41, 120
  %43 = or i8 %42, %8
  %44 = load ptr, ptr %15, align 8, !tbaa !51
  %45 = getelementptr inbounds nuw i8, ptr %44, i64 1
  store ptr %45, ptr %15, align 8, !tbaa !51
  store i8 %43, ptr %44, align 1, !tbaa !13
  %46 = load ptr, ptr %15, align 8, !tbaa !51
  %47 = getelementptr inbounds nuw i8, ptr %46, i64 1
  store ptr %47, ptr %15, align 8, !tbaa !51
  store i8 %5, ptr %46, align 1, !tbaa !13
  %sum.shift.i = lshr i64 %2, 19
  %48 = trunc i64 %sum.shift.i to i8
  %49 = and i8 %48, 31
  tail call void @_ZN4Luau7CodeGen3X6418AssemblyBuilderX6414placeModRegMemENS1_10OperandX64Ehi(ptr noundef nonnull align 8 dereferenceable(252) %0, i64 %4, i8 noundef zeroext %49, i32 noundef 0)
  %50 = getelementptr inbounds nuw i8, ptr %0, i64 248
  %51 = load i32, ptr %50, align 8, !tbaa !63
  %52 = add i32 %51, 1
  store i32 %52, ptr %50, align 8, !tbaa !63
  %53 = getelementptr inbounds nuw i8, ptr %0, i64 240
  %54 = load ptr, ptr %53, align 8, !tbaa !52
  %55 = load ptr, ptr %15, align 8, !tbaa !51
  %56 = ptrtoint ptr %54 to i64
  %57 = ptrtoint ptr %55 to i64
  %58 = sub i64 %56, %57
  %59 = and i64 %58, 4294967280
  %60 = icmp eq i64 %59, 0
  br i1 %60, label %61, label %_ZN4Luau7CodeGen3X6418AssemblyBuilderX646commitEv.exit

61:                                               ; preds = %14
  tail call void @_ZN4Luau7CodeGen3X6418AssemblyBuilderX646extendEv(ptr noundef nonnull align 8 dereferenceable(252) %0)
  br label %_ZN4Luau7CodeGen3X6418AssemblyBuilderX646commitEv.exit

_ZN4Luau7CodeGen3X6418AssemblyBuilderX646commitEv.exit: ; preds = %14, %61
  ret void
}